Certificate:
    Data:
        Version: 3 (0x2)
        Serial Number: 2 (0x2)
    Signature Algorithm: sha256WithRSAEncryption
        Issuer: DC=test, DC=unit, DC=ca, O=Unit Test Inc, OU=Unit Test Signing CA, CN=signing.unit.test
        Validity
            Not Before: Feb 21 12:28:29 2019 GMT
            Not After : Feb 20 12:28:29 2021 GMT
        Subject: DC=test, DC=svc1, DC=client1, O=The Service 1 LTD, OU=The Client1 for Service 1 Server, CN=clt1.svc1.test
        Subject Public Key Info:
            Public Key Algorithm: rsaEncryption
                Public-Key: (2048 bit)
                Modulus:
                    00:b9:da:23:0d:ef:34:02:2e:8c:41:4c:57:72:5d:
                    89:63:97:00:46:3c:9a:53:3b:58:33:c2:aa:3f:75:
                    3b:4d:bb:7f:88:9e:c2:9c:eb:5f:65:30:31:23:d1:
                    c0:02:f5:e3:b8:91:50:59:42:fe:08:b7:00:8b:7a:
                    41:92:d0:57:57:6a:92:3e:a6:96:9c:b4:af:d6:3a:
                    eb:02:3a:bf:09:b0:98:83:bf:21:64:83:44:28:89:
                    7b:16:19:2a:a7:65:ca:f9:a8:10:42:53:22:13:76:
                    d2:86:7e:8e:d6:e5:bd:9e:66:47:b3:f0:75:22:b9:
                    df:f3:91:34:2b:69:18:84:7f:69:a5:31:3f:5f:a5:
                    ba:8c:3b:19:2b:eb:d7:ea:64:4a:b9:94:a0:a8:bd:
                    e0:c9:e2:ed:9e:bc:05:55:de:0b:b4:de:a7:46:23:
                    37:78:91:90:e2:56:ca:77:9a:e1:8d:5d:2a:f7:ff:
                    5c:3f:3a:5b:e4:2f:3e:94:1c:34:a3:c8:22:f3:9b:
                    74:35:3c:f0:70:65:0c:b1:67:c5:2b:cb:6b:dd:af:
                    df:39:2f:53:70:a4:2a:05:4a:2e:ab:62:55:62:37:
                    30:6d:8e:3c:1b:1f:a1:65:09:78:39:30:e5:8e:ce:
                    4a:5c:71:32:48:ea:e2:39:8e:9e:e5:1d:a4:33:82:
                    d4:4b
                Exponent: 65537 (0x10001)
        X509v3 extensions:
            X509v3 Key Usage: critical
                Digital Signature, Key Encipherment
            X509v3 Basic Constraints: 
                CA:FALSE
            X509v3 Extended Key Usage: 
                TLS Web Server Authentication, TLS Web Client Authentication
            X509v3 Subject Key Identifier: 
                83:81:0F:8F:D6:39:5D:5A:8A:63:A9:B8:E6:B0:70:E9:B8:CA:37:F4
            X509v3 Authority Key Identifier: 
                keyid:FF:1B:75:D7:CE:80:C2:C2:8A:26:72:AF:7F:E4:4B:04:C4:4D:74:E4

            X509v3 Subject Alternative Name: 
                DNS:clt1.svc1.test, DNS:clt1.service1.example, DNS:clt1.service1.invalid
    Signature Algorithm: sha256WithRSAEncryption
         5a:02:6b:5b:ff:3d:2f:97:be:7f:13:a7:20:c3:fd:58:35:ee:
         50:e1:ea:67:35:b8:aa:d3:e9:ac:fa:5d:50:8a:b6:af:85:5a:
         5b:ef:a9:c9:b9:db:ae:85:c3:a3:d6:d1:a4:71:88:1d:15:26:
         9f:49:64:15:e1:2a:94:3e:87:78:7e:95:01:90:7f:da:7a:21:
         ce:2d:9f:c2:0c:bb:9c:eb:02:9e:82:a8:80:fc:c0:86:c8:80:
         5b:de:e9:73:53:1e:af:70:9a:88:1d:bb:fa:e6:d6:27:25:72:
         03:57:11:44:92:df:3b:87:ac:c9:6a:57:c2:d9:9a:06:86:84:
         bb:0a:f1:d3:a3:84:f4:66:d3:78:41:88:be:48:6e:bc:50:02:
         03:c7:0e:66:71:e9:89:5f:4a:91:45:26:40:95:40:c3:6b:0d:
         a9:41:19:4a:88:b9:57:e7:af:3c:bb:ca:94:10:2b:43:e8:12:
         65:e5:48:e2:43:ac:39:3d:9c:81:89:9b:96:eb:a4:06:00:e9:
         49:e5:b7:5b:0a:46:42:dd:ad:2d:3a:d6:dc:28:e3:bf:23:a8:
         e6:6a:a5:2a:cc:e4:11:26:c2:20:a4:4d:30:20:64:55:6d:67:
         9f:57:1f:14:2b:81:be:2a:cb:2b:d1:4d:6a:0c:da:43:de:e0:
         16:f5:d9:34:46:6f:1c:79:68:61:dd:4a:6a:ec:2f:43:fe:fd:
         8d:8f:09:50:fa:31:a3:7f:53:ce:61:66:7c:01:5f:34:7d:ac:
         5e:a2:2b:91:03:bb:11:d3:94:29:2d:e1:bf:1f:9f:a9:ac:7f:
         ba:bc:bd:62:2e:e0:ba:84:81:a6:fa:82:08:43:6c:8a:0a:fa:
         31:17:b2:64:d5:ba:f7:e3:1e:a0:c7:97:8e:2d:28:80:a6:f8:
         55:34:10:e2:f0:cf:6c:12:59:6c:69:89:69:b7:33:c4:4f:e4:
         ff:e9:25:d5:e6:7d:87:30:f5:88:43:94:9f:32:09:e3:42:a0:
         dd:51:8f:ad:38:f5:43:4e:e3:d8:49:28:a2:d1:08:78:f4:8f:
         e0:39:d0:c4:10:77:60:1f:ce:ac:49:38:1d:3e:71:bf:f2:c8:
         ba:b9:78:30:e0:cb:c6:31:f2:5a:42:97:d0:dd:2d:6f:8b:e8:
         3a:7f:92:42:4b:6e:28:8c:9a:18:1e:e9:42:c4:b7:62:fe:78:
         83:94:6c:d4:a5:80:01:cb:73:12:4e:77:45:ad:c9:67:80:8b:
         ad:bd:5e:75:57:6d:d6:a5:dc:bb:b4:82:cb:43:da:84:75:cf:
         c2:5c:18:bb:5f:63:af:28:b8:ea:54:e4:68:b3:5b:a6:e8:36:
         0b:82:42:b6:e5:01:61:3e
-----BEGIN CERTIFICATE-----
MIIFfDCCA2SgAwIBAgIBAjANBgkqhkiG9w0BAQsFADCBkzEUMBIGCgmSJomT8ixk
ARkWBHRlc3QxFDASBgoJkiaJk/IsZAEZFgR1bml0MRIwEAYKCZImiZPyLGQBGRYC
Y2ExFjAUBgNVBAoMDVVuaXQgVGVzdCBJbmMxHTAbBgNVBAsMFFVuaXQgVGVzdCBT
aWduaW5nIENBMRowGAYDVQQDDBFzaWduaW5nLnVuaXQudGVzdDAeFw0xOTAyMjEx
MjI4MjlaFw0yMTAyMjAxMjI4MjlaMIGlMRQwEgYKCZImiZPyLGQBGRYEdGVzdDEU
MBIGCgmSJomT8ixkARkWBHN2YzExFzAVBgoJkiaJk/IsZAEZFgdjbGllbnQxMRow
GAYDVQQKDBFUaGUgU2VydmljZSAxIExURDEpMCcGA1UECwwgVGhlIENsaWVudDEg
Zm9yIFNlcnZpY2UgMSBTZXJ2ZXIxFzAVBgNVBAMMDmNsdDEuc3ZjMS50ZXN0MIIB
IjANBgkqhkiG9w0BAQEFAAOCAQ8AMIIBCgKCAQEAudojDe80Ai6MQUxXcl2JY5cA
RjyaUztYM8KqP3U7Tbt/iJ7CnOtfZTAxI9HAAvXjuJFQWUL+CLcAi3pBktBXV2qS
PqaWnLSv1jrrAjq/CbCYg78hZINEKIl7Fhkqp2XK+agQQlMiE3bShn6O1uW9nmZH
s/B1Irnf85E0K2kYhH9ppTE/X6W6jDsZK+vX6mRKuZSgqL3gyeLtnrwFVd4LtN6n
RiM3eJGQ4lbKd5rhjV0q9/9cPzpb5C8+lBw0o8gi85t0NTzwcGUMsWfFK8tr3a/f
OS9TcKQqBUouq2JVYjcwbY48Gx+hZQl4OTDljs5KXHEySOriOY6e5R2kM4LUSwID
AQABo4HGMIHDMA4GA1UdDwEB/wQEAwIFoDAJBgNVHRMEAjAAMB0GA1UdJQQWMBQG
CCsGAQUFBwMBBggrBgEFBQcDAjAdBgNVHQ4EFgQUg4EPj9Y5XVqKY6m45rBw6bjK
N/QwHwYDVR0jBBgwFoAU/xt1186AwsKKJnKvf+RLBMRNdOQwRwYDVR0RBEAwPoIO
Y2x0MS5zdmMxLnRlc3SCFWNsdDEuc2VydmljZTEuZXhhbXBsZYIVY2x0MS5zZXJ2
aWNlMS5pbnZhbGlkMA0GCSqGSIb3DQEBCwUAA4ICAQBaAmtb/z0vl75/E6cgw/1Y
Ne5Q4epnNbiq0+ms+l1QiravhVpb76nJuduuhcOj1tGkcYgdFSafSWQV4SqUPod4
fpUBkH/aeiHOLZ/CDLuc6wKegqiA/MCGyIBb3ulzUx6vcJqIHbv65tYnJXIDVxFE
kt87h6zJalfC2ZoGhoS7CvHTo4T0ZtN4QYi+SG68UAIDxw5mcemJX0qRRSZAlUDD
aw2pQRlKiLlX5688u8qUECtD6BJl5UjiQ6w5PZyBiZuW66QGAOlJ5bdbCkZC3a0t
OtbcKOO/I6jmaqUqzOQRJsIgpE0wIGRVbWefVx8UK4G+Kssr0U1qDNpD3uAW9dk0
Rm8ceWhh3Upq7C9D/v2NjwlQ+jGjf1POYWZ8AV80faxeoiuRA7sR05QpLeG/H5+p
rH+6vL1iLuC6hIGm+oIIQ2yKCvoxF7Jk1br34x6gx5eOLSiApvhVNBDi8M9sElls
aYlptzPET+T/6SXV5n2HMPWIQ5SfMgnjQqDdUY+tOPVDTuPYSSii0Qh49I/gOdDE
EHdgH86sSTgdPnG/8si6uXgw4MvGMfJaQpfQ3S1vi+g6f5JCS24ojJoYHulCxLdi
/niDlGzUpYABy3MSTndFrclngIutvV51V23Wpdy7tILLQ9qEdc/CXBi7X2OvKLjq
VORos1um6DYLgkK25QFhPg==
-----END CERTIFICATE-----
